; Function Attrs: mustprogress uwtable
define hidden noundef ptr @_ZNK7datalog16product_relation5cloneEv(ptr noundef nonnull readonly align 8 captures(none) dereferenceable(48) %0) unnamed_addr #3 align 2 personality ptr @__gxx_personality_v0 {
  %2 = alloca %class.ptr_vector.33, align 8
  call void @llvm.lifetime.start.p0(i64 8, ptr nonnull %2) #26
  store ptr null, ptr %2, align 8, !tbaa !89
  %3 = getelementptr inbounds nuw i8, ptr %0, i64 32
  br label %4

4:                                                ; preds = %35, %1
  %indvars.iv = phi i64 [ %indvars.iv.next, %35 ], [ 0, %1 ]
  %5 = load ptr, ptr %3, align 8, !tbaa !89
  %6 = icmp eq ptr %5, null
  br i1 %6, label %_ZNK7datalog16product_relation4sizeEv.exit, label %7

7:                                                ; preds = %4
  %8 = getelementptr inbounds i8, ptr %5, i64 -4
  %9 = load i32, ptr %8, align 4, !tbaa !39
  %10 = zext i32 %9 to i64
  br label %_ZNK7datalog16product_relation4sizeEv.exit

_ZNK7datalog16product_relation4sizeEv.exit:       ; preds = %7, %4
  %.0.i.i = phi i64 [ %10, %7 ], [ 0, %4 ]
  %11 = icmp samesign ult i64 %indvars.iv, %.0.i.i
  br i1 %11, label %18, label %12

12:                                               ; preds = %_ZNK7datalog16product_relation4sizeEv.exit
  %13 = getelementptr inbounds nuw i8, ptr %0, i64 8
  %14 = load ptr, ptr %13, align 8, !tbaa !86
  %15 = call ptr @__dynamic_cast(ptr nonnull %14, ptr nonnull @_ZTIN7datalog15relation_pluginE, ptr nonnull @_ZTIN7datalog23product_relation_pluginE, i64 0) #26
  %16 = icmp eq ptr %15, null
  br i1 %16, label %17, label %_ZNK7datalog16product_relation10get_pluginEv.exit

17:                                               ; preds = %12
  invoke void @__cxa_bad_cast() #27
          to label %.noexc unwind label %59

.noexc:                                           ; preds = %17
  unreachable

18:                                               ; preds = %_ZNK7datalog16product_relation4sizeEv.exit
  %19 = getelementptr inbounds nuw ptr, ptr %5, i64 %indvars.iv
  %20 = load ptr, ptr %19, align 8, !tbaa !92
  %21 = load ptr, ptr %20, align 8, !tbaa !17
  %22 = getelementptr inbounds nuw i8, ptr %21, i64 72
  %23 = load ptr, ptr %22, align 8
  %24 = invoke noundef ptr %23(ptr noundef nonnull align 8 dereferenceable(28) %20)
          to label %25 unwind label %42

25:                                               ; preds = %18
  %26 = load ptr, ptr %2, align 8, !tbaa !89
  %27 = icmp eq ptr %26, null
  br i1 %27, label %34, label %28

28:                                               ; preds = %25
  %29 = getelementptr inbounds i8, ptr %26, i64 -4
  %30 = load i32, ptr %29, align 4, !tbaa !39
  %31 = getelementptr inbounds i8, ptr %26, i64 -8
  %32 = load i32, ptr %31, align 4, !tbaa !39
  %33 = icmp eq i32 %30, %32
  br i1 %33, label %34, label %35

34:                                               ; preds = %28, %25
  invoke void @_ZN6vectorIPN7datalog13relation_baseELb0EjE13expand_vectorEv(ptr noundef nonnull align 8 dereferenceable(8) %2)
          to label %.noexc11 unwind label %42

.noexc11:                                         ; preds = %34
  %.pre.i = load ptr, ptr %2, align 8, !tbaa !89
  %.phi.trans.insert.i = getelementptr inbounds i8, ptr %.pre.i, i64 -4
  %.pre2.i = load i32, ptr %.phi.trans.insert.i, align 4, !tbaa !39
  br label %35

35:                                               ; preds = %.noexc11, %28
  %36 = phi i32 [ %.pre2.i, %.noexc11 ], [ %30, %28 ]
  %37 = phi ptr [ %.pre.i, %.noexc11 ], [ %26, %28 ]
  %38 = getelementptr inbounds i8, ptr %37, i64 -4
  %39 = zext i32 %36 to i64
  %40 = getelementptr inbounds nuw ptr, ptr %37, i64 %39
  store ptr %24, ptr %40, align 8, !tbaa !92
  %41 = add i32 %36, 1
  store i32 %41, ptr %38, align 4, !tbaa !39
  %indvars.iv.next = add nuw nsw i64 %indvars.iv, 1
  br label %4, !llvm.loop !178

42:                                               ; preds = %34, %18
  %43 = landingpad { ptr, i32 }
          cleanup
  br label %61

_ZNK7datalog16product_relation10get_pluginEv.exit: ; preds = %12
  %44 = invoke noalias noundef ptr @_ZN6memory8allocateEm(i64 noundef 48)
          to label %45 unwind label %59

45:                                               ; preds = %_ZNK7datalog16product_relation10get_pluginEv.exit
  %46 = getelementptr inbounds nuw i8, ptr %0, i64 16
  %47 = load ptr, ptr %2, align 8, !tbaa !89
  %48 = icmp eq ptr %47, null
  br i1 %48, label %_ZNK6vectorIPN7datalog13relation_baseELb0EjE4sizeEv.exit, label %49

49:                                               ; preds = %45
  %50 = getelementptr inbounds i8, ptr %47, i64 -4
  %51 = load i32, ptr %50, align 4, !tbaa !39
  br label %_ZNK6vectorIPN7datalog13relation_baseELb0EjE4sizeEv.exit

_ZNK6vectorIPN7datalog13relation_baseELb0EjE4sizeEv.exit: ; preds = %45, %49
  %.0.i = phi i32 [ %51, %49 ], [ 0, %45 ]
  invoke void @_ZN7datalog16product_relationC2ERNS_23product_relation_pluginERKNS_18relation_signatureEjPPNS_13relation_baseE(ptr noundef nonnull align 8 dereferenceable(48) %44, ptr noundef nonnull align 8 dereferenceable(104) %15, ptr noundef nonnull align 8 dereferenceable(8) %46, i32 noundef %.0.i, ptr noundef %47)
          to label %52 unwind label %59

52:                                               ; preds = %_ZNK6vectorIPN7datalog13relation_baseELb0EjE4sizeEv.exit
  %53 = load ptr, ptr %2, align 8, !tbaa !89
  %.not.i.i = icmp eq ptr %53, null
  br i1 %.not.i.i, label %_ZN6vectorIPN7datalog13relation_baseELb0EjED2Ev.exit, label %54

54:                                               ; preds = %52
  %55 = getelementptr inbounds i8, ptr %53, i64 -8
  invoke void @_ZN6memory10deallocateEPv(ptr noundef nonnull %55)
          to label %_ZN6vectorIPN7datalog13relation_baseELb0EjED2Ev.exit unwind label %56

56:                                               ; preds = %54
  %57 = landingpad { ptr, i32 }
          catch ptr null
  %58 = extractvalue { ptr, i32 } %57, 0
  call void @__clang_call_terminate(ptr %58) #28
  unreachable

_ZN6vectorIPN7datalog13relation_baseELb0EjED2Ev.exit: ; preds = %52, %54
  call void @llvm.lifetime.end.p0(i64 8, ptr nonnull %2) #26
  ret ptr %44

59:                                               ; preds = %17, %_ZNK6vectorIPN7datalog13relation_baseELb0EjE4sizeEv.exit, %_ZNK7datalog16product_relation10get_pluginEv.exit
  %60 = landingpad { ptr, i32 }
          cleanup
  br label %61

61:                                               ; preds = %42, %59
  %.pn.pn = phi { ptr, i32 } [ %60, %59 ], [ %43, %42 ]
  call void @_ZN6vectorIPN7datalog13relation_baseELb0EjED2Ev(ptr noundef nonnull align 8 dereferenceable(8) %2) #26
  call void @llvm.lifetime.end.p0(i64 8, ptr nonnull %2) #26
  resume { ptr, i32 } %.pn.pn
}